target datalayout = "e-m:e-p270:32:32-p271:32:32-p272:64:64-i64:64-i128:128-f80:128-n8:16:32:64-S128"
target triple = "x86_64-pc-linux-gnu"

%struct.rb_data_type_struct = type { ptr, %struct.anon, ptr, ptr, i64 }
%struct.anon = type { ptr, ptr, ptr, ptr, [1 x ptr] }
%struct.rb_io_buffer = type { ptr, i64, i32, i64 }
%struct.RTypedData = type { %struct.RBasic, ptr, i64, ptr }
%struct.RBasic = type { i64, i64 }

@rb_io_buffer_type = internal constant %struct.rb_data_type_struct { ptr @.str.108, %struct.anon { ptr @rb_io_buffer_type_mark, ptr @rb_io_buffer_type_free, ptr @rb_io_buffer_type_size, ptr null, [1 x ptr] zeroinitializer }, ptr null, ptr null, i64 35 }, align 8
@rb_cIOBuffer = dso_local global i64 0, align 8
@rb_eIOBufferMaskError = hidden global i64 0, align 8
@RUBY_IO_BUFFER_PAGE_SIZE = dso_local global i64 0, align 8
@.str.143 = private unnamed_addr constant [24 x i8] c"Zero-length mask given!\00", align 1

; Function Attrs: inlinehint nounwind sspstrong uwtable
define internal zeroext i1 @RTYPEDDATA_EMBEDDED_P(i64 noundef %0) #3 {
  %2 = alloca i64, align 8
  store i64 %0, ptr %2, align 8, !tbaa !20
  %3 = load i64, ptr %2, align 8, !tbaa !20
  %4 = inttoptr i64 %3 to ptr
  %5 = getelementptr inbounds nuw %struct.RTypedData, ptr %4, i32 0, i32 2
  %6 = load i64, ptr %5, align 8, !tbaa !95
  %7 = and i64 %6, 2
  %8 = icmp ne i64 %7, 0
  ret i1 %8
}

; Function Attrs: nounwind sspstrong uwtable
define internal void @io_buffer_zero(ptr noundef %0) #0 {
  %2 = alloca ptr, align 8
  store ptr %0, ptr %2, align 8, !tbaa !11
  %3 = load ptr, ptr %2, align 8, !tbaa !11
  %4 = getelementptr inbounds nuw %struct.rb_io_buffer, ptr %3, i32 0, i32 0
  store ptr null, ptr %4, align 8, !tbaa !17
  %5 = load ptr, ptr %2, align 8, !tbaa !11
  %6 = getelementptr inbounds nuw %struct.rb_io_buffer, ptr %5, i32 0, i32 1
  store i64 0, ptr %6, align 8, !tbaa !19
  %7 = load ptr, ptr %2, align 8, !tbaa !11
  %8 = getelementptr inbounds nuw %struct.rb_io_buffer, ptr %7, i32 0, i32 3
  store i64 4, ptr %8, align 8, !tbaa !13
  ret void
}

; Function Attrs: inlinehint nounwind sspstrong uwtable
define internal ptr @RTYPEDDATA_GET_DATA(i64 noundef %0) #3 {
  %2 = alloca i64, align 8
  %3 = alloca i64, align 8
  store i64 %0, ptr %2, align 8, !tbaa !20
  call void @llvm.lifetime.start.p0(i64 8, ptr %3) #22
  store i64 32, ptr %3, align 8, !tbaa !20
  %4 = load i64, ptr %2, align 8, !tbaa !20
  %5 = call zeroext i1 @RTYPEDDATA_EMBEDDED_P(i64 noundef %4)
  br i1 %5, label %6, label %10

6:                                                ; preds = %1
  %7 = load i64, ptr %2, align 8, !tbaa !20
  %8 = inttoptr i64 %7 to ptr
  %9 = getelementptr i8, ptr %8, i64 32
  br label %15

10:                                               ; preds = %1
  %11 = load i64, ptr %2, align 8, !tbaa !20
  %12 = inttoptr i64 %11 to ptr
  %13 = getelementptr inbounds nuw %struct.RTypedData, ptr %12, i32 0, i32 3
  %14 = load ptr, ptr %13, align 8, !tbaa !21
  br label %15

15:                                               ; preds = %10, %6
  %16 = phi ptr [ %9, %6 ], [ %14, %10 ]
  call void @llvm.lifetime.end.p0(i64 8, ptr %3) #22
  ret ptr %16
}

; Function Attrs: nounwind sspstrong uwtable
define hidden i64 @rb_io_buffer_type_allocate(i64 noundef %0) #0 {
  %2 = alloca i64, align 8
  %3 = alloca ptr, align 8
  %4 = alloca i64, align 8
  %5 = alloca i64, align 8
  %6 = alloca i64, align 8
  store i64 %0, ptr %2, align 8, !tbaa !20
  call void @llvm.lifetime.start.p0(i64 8, ptr %3) #22
  store ptr null, ptr %3, align 8, !tbaa !11
  call void @llvm.lifetime.start.p0(i64 8, ptr %4) #22
  call void @llvm.lifetime.start.p0(i64 8, ptr %5) #22
  %7 = load i64, ptr %2, align 8, !tbaa !20
  %8 = call i64 @rb_data_typed_object_zalloc(i64 noundef %7, i64 noundef 32, ptr noundef @rb_io_buffer_type)
  store i64 %8, ptr %5, align 8, !tbaa !20
  %9 = load i64, ptr %5, align 8, !tbaa !20
  %10 = call ptr @RTYPEDDATA_GET_DATA(i64 noundef %9)
  store ptr %10, ptr %3, align 8, !tbaa !11
  %11 = load i64, ptr %5, align 8, !tbaa !20
  store i64 %11, ptr %6, align 8, !tbaa !20
  call void @llvm.lifetime.end.p0(i64 8, ptr %5) #22
  %12 = load i64, ptr %6, align 8, !tbaa !20
  store i64 %12, ptr %4, align 8, !tbaa !20
  %13 = load ptr, ptr %3, align 8, !tbaa !11
  call void @io_buffer_zero(ptr noundef %13)
  %14 = load i64, ptr %4, align 8, !tbaa !20
  call void @llvm.lifetime.end.p0(i64 8, ptr %4) #22
  call void @llvm.lifetime.end.p0(i64 8, ptr %3) #22
  ret i64 %14
}

; Function Attrs: nounwind sspstrong uwtable
define internal void @memory_xor(ptr noalias noundef %0, ptr noalias noundef %1, i64 noundef %2, ptr noalias noundef %3, i64 noundef %4) #0 {
  %6 = alloca ptr, align 8
  %7 = alloca ptr, align 8
  %8 = alloca i64, align 8
  %9 = alloca ptr, align 8
  %10 = alloca i64, align 8
  %11 = alloca i64, align 8
  store ptr %0, ptr %6, align 8, !tbaa !35
  store ptr %1, ptr %7, align 8, !tbaa !35
  store i64 %2, ptr %8, align 8, !tbaa !20
  store ptr %3, ptr %9, align 8, !tbaa !35
  store i64 %4, ptr %10, align 8, !tbaa !20
  call void @llvm.lifetime.start.p0(i64 8, ptr %11) #22
  store i64 0, ptr %11, align 8, !tbaa !20
  br label %12

12:                                               ; preds = %35, %5
  %13 = load i64, ptr %11, align 8, !tbaa !20
  %14 = load i64, ptr %8, align 8, !tbaa !20
  %15 = icmp ult i64 %13, %14
  br i1 %15, label %17, label %16

16:                                               ; preds = %12
  call void @llvm.lifetime.end.p0(i64 8, ptr %11) #22
  br label %38

17:                                               ; preds = %12
  %18 = load ptr, ptr %7, align 8, !tbaa !35
  %19 = load i64, ptr %11, align 8, !tbaa !20
  %20 = getelementptr i8, ptr %18, i64 %19
  %21 = load i8, ptr %20, align 1, !tbaa !37
  %22 = zext i8 %21 to i32
  %23 = load ptr, ptr %9, align 8, !tbaa !35
  %24 = load i64, ptr %11, align 8, !tbaa !20
  %25 = load i64, ptr %10, align 8, !tbaa !20
  %26 = urem i64 %24, %25
  %27 = getelementptr i8, ptr %23, i64 %26
  %28 = load i8, ptr %27, align 1, !tbaa !37
  %29 = zext i8 %28 to i32
  %30 = xor i32 %22, %29
  %31 = trunc i32 %30 to i8
  %32 = load ptr, ptr %6, align 8, !tbaa !35
  %33 = load i64, ptr %11, align 8, !tbaa !20
  %34 = getelementptr i8, ptr %32, i64 %33
  store i8 %31, ptr %34, align 1, !tbaa !37
  br label %35

35:                                               ; preds = %17
  %36 = load i64, ptr %11, align 8, !tbaa !20
  %37 = add i64 %36, 1
  store i64 %37, ptr %11, align 8, !tbaa !20
  br label %12, !llvm.loop !115

38:                                               ; preds = %16
  ret void
}

; Function Attrs: nounwind sspstrong uwtable
define dso_local i64 @rb_io_buffer_new(ptr noundef %0, i64 noundef %1, i32 noundef %2) #0 {
  %4 = alloca ptr, align 8
  %5 = alloca i64, align 8
  %6 = alloca i32, align 4
  %7 = alloca i64, align 8
  %8 = alloca ptr, align 8
  store ptr %0, ptr %4, align 8, !tbaa !7
  store i64 %1, ptr %5, align 8, !tbaa !20
  store i32 %2, ptr %6, align 4, !tbaa !32
  call void @llvm.lifetime.start.p0(i64 8, ptr %7) #22
  %9 = load i64, ptr @rb_cIOBuffer, align 8, !tbaa !20
  %10 = call i64 @rb_io_buffer_type_allocate(i64 noundef %9)
  store i64 %10, ptr %7, align 8, !tbaa !20
  call void @llvm.lifetime.start.p0(i64 8, ptr %8) #22
  store ptr null, ptr %8, align 8, !tbaa !11
  %11 = load i64, ptr %7, align 8, !tbaa !20
  %12 = call ptr @rb_check_typeddata(i64 noundef %11, ptr noundef @rb_io_buffer_type)
  store ptr %12, ptr %8, align 8, !tbaa !11
  %13 = load i64, ptr %7, align 8, !tbaa !20
  %14 = load ptr, ptr %8, align 8, !tbaa !11
  %15 = load ptr, ptr %4, align 8, !tbaa !7
  %16 = load i64, ptr %5, align 8, !tbaa !20
  %17 = load i32, ptr %6, align 4, !tbaa !32
  call void @io_buffer_initialize(i64 noundef %13, ptr noundef %14, ptr noundef %15, i64 noundef %16, i32 noundef %17, i64 noundef 4)
  %18 = load i64, ptr %7, align 8, !tbaa !20
  call void @llvm.lifetime.end.p0(i64 8, ptr %8) #22
  call void @llvm.lifetime.end.p0(i64 8, ptr %7) #22
  ret i64 %18
}

; Function Attrs: inlinehint nounwind sspstrong uwtable
define internal i32 @io_flags_for_size(i64 noundef %0) #3 {
  %2 = alloca i32, align 4
  %3 = alloca i64, align 8
  store i64 %0, ptr %3, align 8, !tbaa !20
  %4 = load i64, ptr %3, align 8, !tbaa !20
  %5 = load i64, ptr @RUBY_IO_BUFFER_PAGE_SIZE, align 8, !tbaa !20
  %6 = icmp uge i64 %4, %5
  br i1 %6, label %7, label %8

7:                                                ; preds = %1
  store i32 4, ptr %2, align 4
  br label %9

8:                                                ; preds = %1
  store i32 2, ptr %2, align 4
  br label %9

9:                                                ; preds = %8, %7
  %10 = load i32, ptr %2, align 4
  ret i32 %10
}

; Function Attrs: inlinehint nounwind sspstrong uwtable
define internal void @io_buffer_check_mask(ptr noundef %0) #3 {
  %2 = alloca ptr, align 8
  store ptr %0, ptr %2, align 8, !tbaa !11
  %3 = load ptr, ptr %2, align 8, !tbaa !11
  %4 = getelementptr inbounds nuw %struct.rb_io_buffer, ptr %3, i32 0, i32 1
  %5 = load i64, ptr %4, align 8, !tbaa !19
  %6 = icmp eq i64 %5, 0
  br i1 %6, label %7, label %9

7:                                                ; preds = %1
  %8 = load i64, ptr @rb_eIOBufferMaskError, align 8, !tbaa !20
  call void (i64, ptr, ...) @rb_raise(i64 noundef %8, ptr noundef @.str.143) #26
  unreachable

9:                                                ; preds = %1
  ret void
}

; Function Attrs: nounwind sspstrong uwtable
define internal i64 @io_buffer_xor(i64 noundef %0, i64 noundef %1) #0 {
  %3 = alloca i64, align 8
  %4 = alloca i64, align 8
  %5 = alloca ptr, align 8
  %6 = alloca ptr, align 8
  %7 = alloca i64, align 8
  %8 = alloca ptr, align 8
  store i64 %0, ptr %3, align 8, !tbaa !20
  store i64 %1, ptr %4, align 8, !tbaa !20
  call void @llvm.lifetime.start.p0(i64 8, ptr %5) #22
  store ptr null, ptr %5, align 8, !tbaa !11
  %9 = load i64, ptr %3, align 8, !tbaa !20
  %10 = call ptr @rb_check_typeddata(i64 noundef %9, ptr noundef @rb_io_buffer_type)
  store ptr %10, ptr %5, align 8, !tbaa !11
  call void @llvm.lifetime.start.p0(i64 8, ptr %6) #22
  store ptr null, ptr %6, align 8, !tbaa !11
  %11 = load i64, ptr %4, align 8, !tbaa !20
  %12 = call ptr @rb_check_typeddata(i64 noundef %11, ptr noundef @rb_io_buffer_type)
  store ptr %12, ptr %6, align 8, !tbaa !11
  %13 = load ptr, ptr %6, align 8, !tbaa !11
  call void @io_buffer_check_mask(ptr noundef %13)
  call void @llvm.lifetime.start.p0(i64 8, ptr %7) #22
  %14 = load ptr, ptr %5, align 8, !tbaa !11
  %15 = getelementptr inbounds nuw %struct.rb_io_buffer, ptr %14, i32 0, i32 1
  %16 = load i64, ptr %15, align 8, !tbaa !19
  %17 = load ptr, ptr %5, align 8, !tbaa !11
  %18 = getelementptr inbounds nuw %struct.rb_io_buffer, ptr %17, i32 0, i32 1
  %19 = load i64, ptr %18, align 8, !tbaa !19
  %20 = call i32 @io_flags_for_size(i64 noundef %19)
  %21 = call i64 @rb_io_buffer_new(ptr noundef null, i64 noundef %16, i32 noundef %20)
  store i64 %21, ptr %7, align 8, !tbaa !20
  call void @llvm.lifetime.start.p0(i64 8, ptr %8) #22
  store ptr null, ptr %8, align 8, !tbaa !11
  %22 = load i64, ptr %7, align 8, !tbaa !20
  %23 = call ptr @rb_check_typeddata(i64 noundef %22, ptr noundef @rb_io_buffer_type)
  store ptr %23, ptr %8, align 8, !tbaa !11
  %24 = load ptr, ptr %8, align 8, !tbaa !11
  %25 = getelementptr inbounds nuw %struct.rb_io_buffer, ptr %24, i32 0, i32 0
  %26 = load ptr, ptr %25, align 8, !tbaa !17
  %27 = load ptr, ptr %5, align 8, !tbaa !11
  %28 = getelementptr inbounds nuw %struct.rb_io_buffer, ptr %27, i32 0, i32 0
  %29 = load ptr, ptr %28, align 8, !tbaa !17
  %30 = load ptr, ptr %5, align 8, !tbaa !11
  %31 = getelementptr inbounds nuw %struct.rb_io_buffer, ptr %30, i32 0, i32 1
  %32 = load i64, ptr %31, align 8, !tbaa !19
  %33 = load ptr, ptr %6, align 8, !tbaa !11
  %34 = getelementptr inbounds nuw %struct.rb_io_buffer, ptr %33, i32 0, i32 0
  %35 = load ptr, ptr %34, align 8, !tbaa !17
  %36 = load ptr, ptr %6, align 8, !tbaa !11
  %37 = getelementptr inbounds nuw %struct.rb_io_buffer, ptr %36, i32 0, i32 1
  %38 = load i64, ptr %37, align 8, !tbaa !19
  call void @memory_xor(ptr noundef %26, ptr noundef %29, i64 noundef %32, ptr noundef %35, i64 noundef %38)
  %39 = load i64, ptr %7, align 8, !tbaa !20
  call void @llvm.lifetime.end.p0(i64 8, ptr %8) #22
  call void @llvm.lifetime.end.p0(i64 8, ptr %7) #22
  call void @llvm.lifetime.end.p0(i64 8, ptr %6) #22
  call void @llvm.lifetime.end.p0(i64 8, ptr %5) #22
  ret i64 %39
}